; Function Attrs: nounwind uwtable
define ptr @l_Lean_Meta_mkHCongrWithArity_mkProof___lambda__4(ptr noundef %0, ptr noundef readonly captures(none) %1, ptr noundef %2, ptr noundef %3, ptr noundef %4, ptr noundef %5, ptr noundef %6, ptr noundef %7) local_unnamed_addr #1 {
  %9 = load ptr, ptr @l_Lean_instInhabitedExpr, align 8, !tbaa !10
  %10 = getelementptr i8, ptr %1, i64 8
  %.val.i = load i64, ptr %10, align 8, !tbaa !16
  %.not = icmp eq i64 %.val.i, 0
  br i1 %.not, label %lean_array_uget.exit.i, label %11

11:                                               ; preds = %8
  %12 = ptrtoint ptr %9 to i64
  %13 = and i64 %12, 1
  %.not14.i = icmp eq i64 %13, 0
  br i1 %.not14.i, label %14, label %lean_dec.exit.i

14:                                               ; preds = %11
  %15 = load i32, ptr %9, align 4, !tbaa !4
  %16 = icmp sgt i32 %15, 1
  br i1 %16, label %17, label %19, !prof !9

17:                                               ; preds = %14
  %18 = add nsw i32 %15, -1
  store i32 %18, ptr %9, align 4, !tbaa !4
  br label %lean_dec.exit.i

19:                                               ; preds = %14
  %.not.i.i = icmp eq i32 %15, 0
  br i1 %.not.i.i, label %lean_dec.exit.i, label %20

20:                                               ; preds = %19
  tail call void @lean_dec_ref_cold(ptr noundef nonnull %9) #7
  br label %lean_dec.exit.i

lean_dec.exit.i:                                  ; preds = %20, %19, %17, %11
  %21 = getelementptr inbounds nuw i8, ptr %1, i64 24
  %22 = load ptr, ptr %21, align 8, !tbaa !10
  %23 = ptrtoint ptr %22 to i64
  %24 = and i64 %23, 1
  %.not.i11.i = icmp eq i64 %24, 0
  br i1 %.not.i11.i, label %25, label %lean_array_get.exit

25:                                               ; preds = %lean_dec.exit.i
  %.val.i.i.i = load i32, ptr %22, align 4, !tbaa !4
  %26 = icmp sgt i32 %.val.i.i.i, 0
  br i1 %26, label %27, label %29, !prof !9

27:                                               ; preds = %25
  %28 = add nuw i32 %.val.i.i.i, 1
  store i32 %28, ptr %22, align 4, !tbaa !4
  br label %lean_array_get.exit

29:                                               ; preds = %25
  %.not.i.i.i = icmp eq i32 %.val.i.i.i, 0
  br i1 %.not.i.i.i, label %lean_array_get.exit, label %30

30:                                               ; preds = %29
  tail call void @lean_inc_ref_cold(ptr noundef nonnull %22) #7
  br label %lean_array_get.exit

lean_array_uget.exit.i:                           ; preds = %8
  %31 = tail call ptr @lean_array_get_panic(ptr noundef %9) #7
  br label %lean_array_get.exit

lean_array_get.exit:                              ; preds = %lean_dec.exit.i, %27, %29, %30, %lean_array_uget.exit.i
  %.1.i = phi ptr [ %31, %lean_array_uget.exit.i ], [ %22, %30 ], [ %22, %29 ], [ %22, %27 ], [ %22, %lean_dec.exit.i ]
  %32 = ptrtoint ptr %2 to i64
  %33 = and i64 %32, 1
  %.not18 = icmp eq i64 %33, 0
  br i1 %.not18, label %34, label %lean_inc.exit

34:                                               ; preds = %lean_array_get.exit
  %.val.i17 = load i32, ptr %2, align 4, !tbaa !4
  %35 = icmp sgt i32 %.val.i17, 0
  br i1 %35, label %36, label %38, !prof !9

36:                                               ; preds = %34
  %37 = add nuw i32 %.val.i17, 1
  store i32 %37, ptr %2, align 4, !tbaa !4
  br label %lean_inc.exit

38:                                               ; preds = %34
  %.not.i = icmp eq i32 %.val.i17, 0
  br i1 %.not.i, label %lean_inc.exit, label %39

39:                                               ; preds = %38
  tail call void @lean_inc_ref_cold(ptr noundef nonnull %2) #7
  br label %lean_inc.exit

lean_inc.exit:                                    ; preds = %39, %38, %36, %lean_array_get.exit
  tail call void @lean_inc_heartbeat() #7
  %40 = tail call noalias ptr @mi_malloc_small(i64 noundef 40) #7
  %41 = icmp eq ptr %40, null
  br i1 %41, label %42, label %lean_alloc_closure.exit

42:                                               ; preds = %lean_inc.exit
  tail call void @lean_internal_panic_out_of_memory() #8
  unreachable

lean_alloc_closure.exit:                          ; preds = %lean_inc.exit
  %43 = getelementptr inbounds nuw i8, ptr %40, i64 4
  store i32 1, ptr %40, align 4, !tbaa !4
  store i32 -184549336, ptr %43, align 4
  %44 = getelementptr inbounds nuw i8, ptr %40, i64 8
  store ptr @l_Lean_Meta_mkHCongrWithArity_mkProof___lambda__3___boxed, ptr %44, align 8, !tbaa !10
  %45 = getelementptr inbounds nuw i8, ptr %40, i64 16
  store i16 9, ptr %45, align 8, !tbaa !12
  %46 = getelementptr inbounds nuw i8, ptr %40, i64 18
  store i16 2, ptr %46, align 2, !tbaa !12
  %47 = getelementptr inbounds nuw i8, ptr %40, i64 24
  store ptr %2, ptr %47, align 8, !tbaa !10
  %48 = getelementptr inbounds nuw i8, ptr %40, i64 32
  store ptr %.1.i, ptr %48, align 8, !tbaa !10
  %49 = tail call ptr @l_Lean_Meta_forallBoundedTelescope___at_Lean_Meta_arrowDomainsN___spec__6___rarg(ptr noundef %2, ptr noundef %0, ptr noundef nonnull %40, i8 noundef zeroext 1, ptr noundef %3, ptr noundef %4, ptr noundef %5, ptr noundef %6, ptr noundef %7) #7
  ret ptr %49
}